target datalayout = "e-m:e-p270:32:32-p271:32:32-p272:64:64-i64:64-i128:128-f80:128-n8:16:32:64-S128"
target triple = "x86_64-pc-linux-gnu"

%struct.cli_bc = type { %struct.bytecode_metadata, i32, i32, i32, i32, ptr, ptr, ptr, ptr, i64, i32, ptr, ptr, ptr, ptr, i32, i16, ptr, i32, i32, i32, i32, ptr, i32, i32, ptr }
%struct.bytecode_metadata = type { ptr, ptr, i64, i32, i32, i32, i32, i32 }
%struct.cli_bc_func = type { i8, i16, i32, i32, i32, i32, i16, i16, ptr, i32, ptr, ptr, ptr, ptr }

@.str.126 = private unnamed_addr constant [2 x i8] c"\0A\00", align 1
@.str.186 = private unnamed_addr constant [74 x i8] c"------------------------------------------------------------------------\0A\00", align 1
@.str.188 = private unnamed_addr constant [65 x i8] c"bytecode diagnostic: funcid [%u] outside bytecode numfuncs [%u]\0A\00", align 1
@.str.189 = private unnamed_addr constant [30 x i8] c"found a total of %zu globals\0A\00", align 1
@.str.190 = private unnamed_addr constant [18 x i8] c"GID  ID    VALUE\0A\00", align 1
@.str.191 = private unnamed_addr constant [12 x i8] c"%3u [%3u]: \00", align 1
@.str.192 = private unnamed_addr constant [10 x i8] c" unknown\0A\00", align 1
@.str.193 = private unnamed_addr constant [49 x i8] c"found %d values with %d arguments and %d locals\0A\00", align 1
@.str.194 = private unnamed_addr constant [18 x i8] c"VID  ID    VALUE\0A\00", align 1
@.str.195 = private unnamed_addr constant [10 x i8] c" argument\00", align 1
@.str.196 = private unnamed_addr constant [31 x i8] c"found a total of %d constants\0A\00", align 1
@.str.197 = private unnamed_addr constant [18 x i8] c"CID  ID    VALUE\0A\00", align 1
@.str.198 = private unnamed_addr constant [23 x i8] c"%3u [%3u]: %lu(0x%lx)\0A\00", align 1
@.str.199 = private unnamed_addr constant [34 x i8] c"found a total of %u total values\0A\00", align 1

; Function Attrs: nounwind uwtable
define void @cli_bytevalue_describe(ptr noundef %0, i32 noundef %1) #0 {
  %3 = alloca ptr, align 8
  %4 = alloca i32, align 4
  %5 = alloca i32, align 4
  %6 = alloca i32, align 4
  %7 = alloca ptr, align 8
  store ptr %0, ptr %3, align 8
  store i32 %1, ptr %4, align 4
  store i32 0, ptr %6, align 4
  %8 = load i32, ptr %4, align 4
  %9 = load ptr, ptr %3, align 8
  %10 = getelementptr inbounds %struct.cli_bc, ptr %9, i32 0, i32 4
  %11 = load i32, ptr %10, align 4
  %12 = icmp uge i32 %8, %11
  br i1 %12, label %13, label %19

13:                                               ; preds = %2
  %14 = load i32, ptr %4, align 4
  %15 = load ptr, ptr %3, align 8
  %16 = getelementptr inbounds %struct.cli_bc, ptr %15, i32 0, i32 4
  %17 = load i32, ptr %16, align 4
  %18 = call i32 (ptr, ...) @printf(ptr noundef @.str.188, i32 noundef %14, i32 noundef %17)
  br label %146

19:                                               ; preds = %2
  %20 = load ptr, ptr %3, align 8
  %21 = getelementptr inbounds %struct.cli_bc, ptr %20, i32 0, i32 9
  %22 = load i64, ptr %21, align 8
  %23 = call i32 (ptr, ...) @printf(ptr noundef @.str.189, i64 noundef %22)
  %24 = call i32 (ptr, ...) @printf(ptr noundef @.str.190)
  %25 = call i32 (ptr, ...) @printf(ptr noundef @.str.186)
  store i32 0, ptr %5, align 4
  br label %26

26:                                               ; preds = %47, %19
  %27 = load i32, ptr %5, align 4
  %28 = zext i32 %27 to i64
  %29 = load ptr, ptr %3, align 8
  %30 = getelementptr inbounds %struct.cli_bc, ptr %29, i32 0, i32 9
  %31 = load i64, ptr %30, align 8
  %32 = icmp ult i64 %28, %31
  br i1 %32, label %33, label %50

33:                                               ; preds = %26
  %34 = load i32, ptr %5, align 4
  %35 = load i32, ptr %5, align 4
  %36 = call i32 (ptr, ...) @printf(ptr noundef @.str.191, i32 noundef %34, i32 noundef %35)
  %37 = load ptr, ptr %3, align 8
  %38 = load ptr, ptr %3, align 8
  %39 = getelementptr inbounds %struct.cli_bc, ptr %38, i32 0, i32 8
  %40 = load ptr, ptr %39, align 8
  %41 = load i32, ptr %5, align 4
  %42 = zext i32 %41 to i64
  %43 = getelementptr inbounds i16, ptr %40, i64 %42
  %44 = load i16, ptr %43, align 2
  %45 = zext i16 %44 to i32
  call void @cli_bytetype_helper(ptr noundef %37, i32 noundef %45)
  %46 = call i32 (ptr, ...) @printf(ptr noundef @.str.192)
  br label %47

47:                                               ; preds = %33
  %48 = load i32, ptr %5, align 4
  %49 = add i32 %48, 1
  store i32 %49, ptr %5, align 4
  br label %26

50:                                               ; preds = %26
  %51 = call i32 (ptr, ...) @printf(ptr noundef @.str.186)
  %52 = load ptr, ptr %3, align 8
  %53 = getelementptr inbounds %struct.cli_bc, ptr %52, i32 0, i32 5
  %54 = load ptr, ptr %53, align 8
  %55 = load i32, ptr %4, align 4
  %56 = zext i32 %55 to i64
  %57 = getelementptr inbounds %struct.cli_bc_func, ptr %54, i64 %56
  store ptr %57, ptr %7, align 8
  %58 = load ptr, ptr %7, align 8
  %59 = getelementptr inbounds %struct.cli_bc_func, ptr %58, i32 0, i32 3
  %60 = load i32, ptr %59, align 8
  %61 = load ptr, ptr %7, align 8
  %62 = getelementptr inbounds %struct.cli_bc_func, ptr %61, i32 0, i32 0
  %63 = load i8, ptr %62, align 8
  %64 = zext i8 %63 to i32
  %65 = load ptr, ptr %7, align 8
  %66 = getelementptr inbounds %struct.cli_bc_func, ptr %65, i32 0, i32 1
  %67 = load i16, ptr %66, align 2
  %68 = zext i16 %67 to i32
  %69 = call i32 (ptr, ...) @printf(ptr noundef @.str.193, i32 noundef %60, i32 noundef %64, i32 noundef %68)
  %70 = call i32 (ptr, ...) @printf(ptr noundef @.str.194)
  %71 = call i32 (ptr, ...) @printf(ptr noundef @.str.186)
  store i32 0, ptr %5, align 4
  br label %72

72:                                               ; preds = %102, %50
  %73 = load i32, ptr %5, align 4
  %74 = load ptr, ptr %7, align 8
  %75 = getelementptr inbounds %struct.cli_bc_func, ptr %74, i32 0, i32 3
  %76 = load i32, ptr %75, align 8
  %77 = icmp ult i32 %73, %76
  br i1 %77, label %78, label %105

78:                                               ; preds = %72
  %79 = load i32, ptr %5, align 4
  %80 = load i32, ptr %6, align 4
  %81 = add i32 %80, 1
  store i32 %81, ptr %6, align 4
  %82 = call i32 (ptr, ...) @printf(ptr noundef @.str.191, i32 noundef %79, i32 noundef %80)
  %83 = load ptr, ptr %3, align 8
  %84 = load ptr, ptr %7, align 8
  %85 = getelementptr inbounds %struct.cli_bc_func, ptr %84, i32 0, i32 8
  %86 = load ptr, ptr %85, align 8
  %87 = load i32, ptr %5, align 4
  %88 = zext i32 %87 to i64
  %89 = getelementptr inbounds i16, ptr %86, i64 %88
  %90 = load i16, ptr %89, align 2
  %91 = zext i16 %90 to i32
  call void @cli_bytetype_helper(ptr noundef %83, i32 noundef %91)
  %92 = load i32, ptr %5, align 4
  %93 = load ptr, ptr %7, align 8
  %94 = getelementptr inbounds %struct.cli_bc_func, ptr %93, i32 0, i32 0
  %95 = load i8, ptr %94, align 8
  %96 = zext i8 %95 to i32
  %97 = icmp ult i32 %92, %96
  br i1 %97, label %98, label %100

98:                                               ; preds = %78
  %99 = call i32 (ptr, ...) @printf(ptr noundef @.str.195)
  br label %100

100:                                              ; preds = %98, %78
  %101 = call i32 (ptr, ...) @printf(ptr noundef @.str.126)
  br label %102

102:                                              ; preds = %100
  %103 = load i32, ptr %5, align 4
  %104 = add i32 %103, 1
  store i32 %104, ptr %5, align 4
  br label %72

105:                                              ; preds = %72
  %106 = call i32 (ptr, ...) @printf(ptr noundef @.str.186)
  %107 = load ptr, ptr %7, align 8
  %108 = getelementptr inbounds %struct.cli_bc_func, ptr %107, i32 0, i32 4
  %109 = load i32, ptr %108, align 4
  %110 = call i32 (ptr, ...) @printf(ptr noundef @.str.196, i32 noundef %109)
  %111 = call i32 (ptr, ...) @printf(ptr noundef @.str.197)
  %112 = call i32 (ptr, ...) @printf(ptr noundef @.str.186)
  store i32 0, ptr %5, align 4
  br label %113

113:                                              ; preds = %138, %105
  %114 = load i32, ptr %5, align 4
  %115 = load ptr, ptr %7, align 8
  %116 = getelementptr inbounds %struct.cli_bc_func, ptr %115, i32 0, i32 4
  %117 = load i32, ptr %116, align 4
  %118 = icmp ult i32 %114, %117
  br i1 %118, label %119, label %141

119:                                              ; preds = %113
  %120 = load i32, ptr %5, align 4
  %121 = load i32, ptr %6, align 4
  %122 = add i32 %121, 1
  store i32 %122, ptr %6, align 4
  %123 = load ptr, ptr %7, align 8
  %124 = getelementptr inbounds %struct.cli_bc_func, ptr %123, i32 0, i32 12
  %125 = load ptr, ptr %124, align 8
  %126 = load i32, ptr %5, align 4
  %127 = zext i32 %126 to i64
  %128 = getelementptr inbounds i64, ptr %125, i64 %127
  %129 = load i64, ptr %128, align 8
  %130 = load ptr, ptr %7, align 8
  %131 = getelementptr inbounds %struct.cli_bc_func, ptr %130, i32 0, i32 12
  %132 = load ptr, ptr %131, align 8
  %133 = load i32, ptr %5, align 4
  %134 = zext i32 %133 to i64
  %135 = getelementptr inbounds i64, ptr %132, i64 %134
  %136 = load i64, ptr %135, align 8
  %137 = call i32 (ptr, ...) @printf(ptr noundef @.str.198, i32 noundef %120, i32 noundef %121, i64 noundef %129, i64 noundef %136)
  br label %138

138:                                              ; preds = %119
  %139 = load i32, ptr %5, align 4
  %140 = add i32 %139, 1
  store i32 %140, ptr %5, align 4
  br label %113

141:                                              ; preds = %113
  %142 = call i32 (ptr, ...) @printf(ptr noundef @.str.186)
  %143 = load i32, ptr %6, align 4
  %144 = call i32 (ptr, ...) @printf(ptr noundef @.str.199, i32 noundef %143)
  %145 = call i32 (ptr, ...) @printf(ptr noundef @.str.186)
  br label %146

146:                                              ; preds = %141, %13
  ret void
}