; Function Attrs: nofree nounwind uwtable
define void @cli_bytevalue_describe(ptr noundef %0, i32 noundef %1) local_unnamed_addr #16 {
  %3 = getelementptr inbounds i8, ptr %0, i64 60
  %4 = load i32, ptr %3, align 4
  %.not = icmp ugt i32 %4, %1
  br i1 %.not, label %7, label %5

5:                                                ; preds = %2
  %6 = tail call i32 (ptr, ...) @printf(ptr noundef nonnull dereferenceable(1) @.str.188, i32 noundef %1, i32 noundef %4)
  br label %69

7:                                                ; preds = %2
  %8 = getelementptr inbounds i8, ptr %0, i64 96
  %9 = load i64, ptr %8, align 8
  %10 = tail call i32 (ptr, ...) @printf(ptr noundef nonnull dereferenceable(1) @.str.189, i64 noundef %9)
  %puts = tail call i32 @puts(ptr nonnull dereferenceable(1) @str.4)
  %puts44 = tail call i32 @puts(ptr nonnull dereferenceable(1) @str.17)
  %11 = load i64, ptr %8, align 8
  %.not66 = icmp eq i64 %11, 0
  br i1 %.not66, label %._crit_edge, label %.lr.ph

.lr.ph:                                           ; preds = %7
  %12 = getelementptr inbounds i8, ptr %0, i64 88
  br label %13

13:                                               ; preds = %.lr.ph, %13
  %14 = phi i64 [ 0, %.lr.ph ], [ %21, %13 ]
  %.054 = phi i32 [ 0, %.lr.ph ], [ %20, %13 ]
  %15 = tail call i32 (ptr, ...) @printf(ptr noundef nonnull dereferenceable(1) @.str.191, i32 noundef %.054, i32 noundef %.054)
  %16 = load ptr, ptr %12, align 8
  %17 = getelementptr inbounds i16, ptr %16, i64 %14
  %18 = load i16, ptr %17, align 2
  %19 = zext i16 %18 to i32
  tail call fastcc void @cli_bytetype_helper(ptr noundef nonnull %0, i32 noundef %19)
  %puts53 = tail call i32 @puts(ptr nonnull dereferenceable(1) @str.14)
  %20 = add i32 %.054, 1
  %21 = zext i32 %20 to i64
  %22 = load i64, ptr %8, align 8
  %23 = icmp ugt i64 %22, %21
  br i1 %23, label %13, label %._crit_edge

._crit_edge:                                      ; preds = %13, %7
  %puts45 = tail call i32 @puts(ptr nonnull dereferenceable(1) @str.17)
  %24 = getelementptr inbounds i8, ptr %0, i64 64
  %25 = load ptr, ptr %24, align 8
  %26 = zext i32 %1 to i64
  %27 = getelementptr inbounds %struct.cli_bc_func, ptr %25, i64 %26
  %28 = getelementptr inbounds i8, ptr %27, i64 8
  %29 = load i32, ptr %28, align 8
  %30 = load i8, ptr %27, align 8
  %31 = zext i8 %30 to i32
  %32 = getelementptr inbounds i8, ptr %27, i64 2
  %33 = load i16, ptr %32, align 2
  %34 = zext i16 %33 to i32
  %35 = tail call i32 (ptr, ...) @printf(ptr noundef nonnull dereferenceable(1) @.str.193, i32 noundef %29, i32 noundef %31, i32 noundef %34)
  %puts46 = tail call i32 @puts(ptr nonnull dereferenceable(1) @str.7)
  %puts47 = tail call i32 @puts(ptr nonnull dereferenceable(1) @str.17)
  %36 = load i32, ptr %28, align 8
  %.not67 = icmp eq i32 %36, 0
  br i1 %.not67, label %._crit_edge59, label %.lr.ph58

.lr.ph58:                                         ; preds = %._crit_edge
  %37 = getelementptr inbounds i8, ptr %27, i64 24
  br label %38

38:                                               ; preds = %.lr.ph58, %49
  %indvars.iv = phi i64 [ 0, %.lr.ph58 ], [ %indvars.iv.next, %49 ]
  %indvars72 = trunc i64 %indvars.iv to i32
  %indvars.iv.next = add nuw nsw i64 %indvars.iv, 1
  %39 = tail call i32 (ptr, ...) @printf(ptr noundef nonnull dereferenceable(1) @.str.191, i32 noundef %indvars72, i32 noundef %indvars72)
  %40 = load ptr, ptr %37, align 8
  %41 = getelementptr inbounds i16, ptr %40, i64 %indvars.iv
  %42 = load i16, ptr %41, align 2
  %43 = zext i16 %42 to i32
  tail call fastcc void @cli_bytetype_helper(ptr noundef %0, i32 noundef %43)
  %44 = load i8, ptr %27, align 8
  %45 = zext i8 %44 to i64
  %46 = icmp ult i64 %indvars.iv, %45
  br i1 %46, label %47, label %49

47:                                               ; preds = %38
  %48 = tail call i32 (ptr, ...) @printf(ptr noundef nonnull dereferenceable(1) @.str.195)
  br label %49

49:                                               ; preds = %47, %38
  %putchar = tail call i32 @putchar(i32 10)
  %50 = load i32, ptr %28, align 8
  %51 = zext i32 %50 to i64
  %52 = icmp ult i64 %indvars.iv.next, %51
  br i1 %52, label %38, label %._crit_edge59.loopexit

._crit_edge59.loopexit:                           ; preds = %49
  %indvars71.le = trunc i64 %indvars.iv.next to i32
  br label %._crit_edge59

._crit_edge59:                                    ; preds = %._crit_edge59.loopexit, %._crit_edge
  %.038.lcssa = phi i32 [ 0, %._crit_edge ], [ %indvars71.le, %._crit_edge59.loopexit ]
  %puts48 = tail call i32 @puts(ptr nonnull dereferenceable(1) @str.17)
  %53 = getelementptr inbounds i8, ptr %27, i64 12
  %54 = load i32, ptr %53, align 4
  %55 = tail call i32 (ptr, ...) @printf(ptr noundef nonnull dereferenceable(1) @.str.196, i32 noundef %54)
  %puts49 = tail call i32 @puts(ptr nonnull dereferenceable(1) @str.10)
  %puts50 = tail call i32 @puts(ptr nonnull dereferenceable(1) @str.17)
  %56 = load i32, ptr %53, align 4
  %.not68 = icmp eq i32 %56, 0
  br i1 %.not68, label %._crit_edge64, label %.lr.ph63

.lr.ph63:                                         ; preds = %._crit_edge59
  %57 = getelementptr inbounds i8, ptr %27, i64 56
  br label %58

58:                                               ; preds = %.lr.ph63, %58
  %indvars.iv73 = phi i64 [ 0, %.lr.ph63 ], [ %indvars.iv.next74, %58 ]
  %.13960 = phi i32 [ %.038.lcssa, %.lr.ph63 ], [ %59, %58 ]
  %59 = add i32 %.13960, 1
  %60 = load ptr, ptr %57, align 8
  %61 = getelementptr inbounds i64, ptr %60, i64 %indvars.iv73
  %62 = load i64, ptr %61, align 8
  %63 = trunc nuw i64 %indvars.iv73 to i32
  %64 = tail call i32 (ptr, ...) @printf(ptr noundef nonnull dereferenceable(1) @.str.198, i32 noundef %63, i32 noundef %.13960, i64 noundef %62, i64 noundef %62)
  %indvars.iv.next74 = add nuw nsw i64 %indvars.iv73, 1
  %65 = load i32, ptr %53, align 4
  %66 = zext i32 %65 to i64
  %67 = icmp ult i64 %indvars.iv.next74, %66
  br i1 %67, label %58, label %._crit_edge64

._crit_edge64:                                    ; preds = %58, %._crit_edge59
  %.139.lcssa = phi i32 [ %.038.lcssa, %._crit_edge59 ], [ %59, %58 ]
  %puts51 = tail call i32 @puts(ptr nonnull dereferenceable(1) @str.17)
  %68 = tail call i32 (ptr, ...) @printf(ptr noundef nonnull dereferenceable(1) @.str.199, i32 noundef %.139.lcssa)
  %puts52 = tail call i32 @puts(ptr nonnull dereferenceable(1) @str.17)
  br label %69

69:                                               ; preds = %._crit_edge64, %5
  ret void
}